; Function Attrs: mustprogress uwtable
define noundef ptr @ucol_getLocale_75(ptr noundef %coll, i32 noundef %type, ptr noundef %status) local_unnamed_addr #0 {
entry:
  %0 = load i32, ptr %status, align 4
  %cmp.i.i = icmp slt i32 %0, 1
  br i1 %cmp.i.i, label %if.end.i, label %ucol_getLocaleByType_75.exit

if.end.i:                                         ; preds = %entry
  %1 = icmp ne ptr %coll, null
  tail call void @llvm.assume(i1 %1)
  %2 = tail call ptr @__dynamic_cast(ptr nonnull %coll, ptr nonnull @_ZTIN6icu_758CollatorE, ptr nonnull @_ZTIN6icu_7517RuleBasedCollatorE, i64 0) #10
  %cmp.i = icmp eq ptr %2, null
  br i1 %cmp.i, label %if.then3.i, label %if.else.i

if.then3.i:                                       ; preds = %if.end.i
  store i32 16, ptr %status, align 4
  br label %ucol_getLocaleByType_75.exit

if.else.i:                                        ; preds = %if.end.i
  %call4.i = tail call noundef ptr @_ZNK6icu_7517RuleBasedCollator19internalGetLocaleIDE18ULocDataLocaleTypeR10UErrorCode(ptr noundef nonnull align 8 dereferenceable(272) %2, i32 noundef %type, ptr noundef nonnull align 4 dereferenceable(4) %status)
  br label %ucol_getLocaleByType_75.exit

ucol_getLocaleByType_75.exit:                     ; preds = %entry, %if.then3.i, %if.else.i
  %retval.0.i = phi ptr [ null, %entry ], [ null, %if.then3.i ], [ %call4.i, %if.else.i ]
  ret ptr %retval.0.i
}